target datalayout = "e-m:e-p270:32:32-p271:32:32-p272:64:64-i64:64-i128:128-f80:128-n8:16:32:64-S128"
target triple = "x86_64-pc-linux-gnu"

%"class.LIEF::ELF::SymbolVersionDefinition" = type { %"class.LIEF::Object", i16, i16, i16, i32, %"class.std::vector" }
%"class.LIEF::Object" = type { ptr }
%"class.std::vector" = type { %"struct.std::_Vector_base" }
%"struct.std::_Vector_base" = type { %"struct.std::_Vector_base<std::unique_ptr<LIEF::ELF::SymbolVersionAux>, std::allocator<std::unique_ptr<LIEF::ELF::SymbolVersionAux>>>::_Vector_impl" }
%"struct.std::_Vector_base<std::unique_ptr<LIEF::ELF::SymbolVersionAux>, std::allocator<std::unique_ptr<LIEF::ELF::SymbolVersionAux>>>::_Vector_impl" = type { %"struct.std::_Vector_base<std::unique_ptr<LIEF::ELF::SymbolVersionAux>, std::allocator<std::unique_ptr<LIEF::ELF::SymbolVersionAux>>>::_Vector_impl_data" }
%"struct.std::_Vector_base<std::unique_ptr<LIEF::ELF::SymbolVersionAux>, std::allocator<std::unique_ptr<LIEF::ELF::SymbolVersionAux>>>::_Vector_impl_data" = type { ptr, ptr, ptr }
%"struct.std::_Setw" = type { i32 }

; Function Attrs: mustprogress nounwind uwtable
define linkonce_odr hidden noundef i32 @_ZNK4LIEF3ELF23SymbolVersionDefinition4hashEv(ptr noundef nonnull align 8 dereferenceable(48) %0) #0 comdat align 2 {
  %2 = alloca ptr, align 8
  store ptr %0, ptr %2, align 8
  %3 = load ptr, ptr %2, align 8
  %4 = getelementptr inbounds %"class.LIEF::ELF::SymbolVersionDefinition", ptr %3, i32 0, i32 4
  %5 = load i32, ptr %4, align 8
  ret i32 %5
}

; Function Attrs: mustprogress nounwind uwtable
define linkonce_odr hidden noundef zeroext i16 @_ZNK4LIEF3ELF23SymbolVersionDefinition3ndxEv(ptr noundef nonnull align 8 dereferenceable(48) %0) #0 comdat align 2 {
  %2 = alloca ptr, align 8
  store ptr %0, ptr %2, align 8
  %3 = load ptr, ptr %2, align 8
  %4 = getelementptr inbounds %"class.LIEF::ELF::SymbolVersionDefinition", ptr %3, i32 0, i32 3
  %5 = load i16, ptr %4, align 4
  ret i16 %5
}

; Function Attrs: mustprogress nounwind uwtable
define linkonce_odr hidden noundef zeroext i16 @_ZNK4LIEF3ELF23SymbolVersionDefinition5flagsEv(ptr noundef nonnull align 8 dereferenceable(48) %0) #0 comdat align 2 {
  %2 = alloca ptr, align 8
  store ptr %0, ptr %2, align 8
  %3 = load ptr, ptr %2, align 8
  %4 = getelementptr inbounds %"class.LIEF::ELF::SymbolVersionDefinition", ptr %3, i32 0, i32 2
  %5 = load i16, ptr %4, align 2
  ret i16 %5
}

; Function Attrs: mustprogress nounwind uwtable
define linkonce_odr hidden noundef zeroext i16 @_ZNK4LIEF3ELF23SymbolVersionDefinition7versionEv(ptr noundef nonnull align 8 dereferenceable(48) %0) #0 comdat align 2 {
  %2 = alloca ptr, align 8
  store ptr %0, ptr %2, align 8
  %3 = load ptr, ptr %2, align 8
  %4 = getelementptr inbounds %"class.LIEF::ELF::SymbolVersionDefinition", ptr %3, i32 0, i32 1
  %5 = load i16, ptr %4, align 8
  ret i16 %5
}

; Function Attrs: mustprogress nounwind uwtable
define linkonce_odr i32 @_ZSt4setwi(i32 noundef %0) #0 comdat {
  %2 = alloca %"struct.std::_Setw", align 4
  %3 = alloca i32, align 4
  store i32 %0, ptr %3, align 4
  %4 = getelementptr inbounds %"struct.std::_Setw", ptr %2, i32 0, i32 0
  %5 = load i32, ptr %3, align 4
  store i32 %5, ptr %4, align 4
  %6 = getelementptr inbounds %"struct.std::_Setw", ptr %2, i32 0, i32 0
  %7 = load i32, ptr %6, align 4
  ret i32 %7
}

; Function Attrs: mustprogress uwtable
define noundef nonnull align 8 dereferenceable(8) ptr @_ZN4LIEF3ELFlsERSoRKNS0_23SymbolVersionDefinitionE(ptr noundef nonnull align 8 dereferenceable(8) %0, ptr noundef nonnull align 8 dereferenceable(48) %1) #3 {
  %3 = alloca ptr, align 8
  %4 = alloca ptr, align 8
  %5 = alloca %"struct.std::_Setw", align 4
  %6 = alloca %"struct.std::_Setw", align 4
  %7 = alloca %"struct.std::_Setw", align 4
  %8 = alloca %"struct.std::_Setw", align 4
  store ptr %0, ptr %3, align 8
  store ptr %1, ptr %4, align 8
  %9 = load ptr, ptr %3, align 8
  %10 = call noundef nonnull align 8 dereferenceable(8) ptr @_ZNSolsEPFRSt8ios_baseS0_E(ptr noundef nonnull align 8 dereferenceable(8) %9, ptr noundef @_ZSt3hexRSt8ios_base)
  %11 = call noundef nonnull align 8 dereferenceable(8) ptr @_ZNSolsEPFRSt8ios_baseS0_E(ptr noundef nonnull align 8 dereferenceable(8) %10, ptr noundef @_ZSt4leftRSt8ios_base)
  %12 = load ptr, ptr %3, align 8
  %13 = call i32 @_ZSt4setwi(i32 noundef 10)
  %14 = getelementptr inbounds %"struct.std::_Setw", ptr %5, i32 0, i32 0
  store i32 %13, ptr %14, align 4
  %15 = getelementptr inbounds %"struct.std::_Setw", ptr %5, i32 0, i32 0
  %16 = load i32, ptr %15, align 4
  %17 = call noundef nonnull align 8 dereferenceable(8) ptr @_ZStlsIcSt11char_traitsIcEERSt13basic_ostreamIT_T0_ES6_St5_Setw(ptr noundef nonnull align 8 dereferenceable(8) %12, i32 %16)
  %18 = load ptr, ptr %4, align 8
  %19 = call noundef zeroext i16 @_ZNK4LIEF3ELF23SymbolVersionDefinition7versionEv(ptr noundef nonnull align 8 dereferenceable(48) %18)
  %20 = call noundef nonnull align 8 dereferenceable(8) ptr @_ZNSolsEt(ptr noundef nonnull align 8 dereferenceable(8) %17, i16 noundef zeroext %19)
  %21 = load ptr, ptr %3, align 8
  %22 = call i32 @_ZSt4setwi(i32 noundef 10)
  %23 = getelementptr inbounds %"struct.std::_Setw", ptr %6, i32 0, i32 0
  store i32 %22, ptr %23, align 4
  %24 = getelementptr inbounds %"struct.std::_Setw", ptr %6, i32 0, i32 0
  %25 = load i32, ptr %24, align 4
  %26 = call noundef nonnull align 8 dereferenceable(8) ptr @_ZStlsIcSt11char_traitsIcEERSt13basic_ostreamIT_T0_ES6_St5_Setw(ptr noundef nonnull align 8 dereferenceable(8) %21, i32 %25)
  %27 = load ptr, ptr %4, align 8
  %28 = call noundef zeroext i16 @_ZNK4LIEF3ELF23SymbolVersionDefinition5flagsEv(ptr noundef nonnull align 8 dereferenceable(48) %27)
  %29 = call noundef nonnull align 8 dereferenceable(8) ptr @_ZNSolsEt(ptr noundef nonnull align 8 dereferenceable(8) %26, i16 noundef zeroext %28)
  %30 = load ptr, ptr %3, align 8
  %31 = call i32 @_ZSt4setwi(i32 noundef 10)
  %32 = getelementptr inbounds %"struct.std::_Setw", ptr %7, i32 0, i32 0
  store i32 %31, ptr %32, align 4
  %33 = getelementptr inbounds %"struct.std::_Setw", ptr %7, i32 0, i32 0
  %34 = load i32, ptr %33, align 4
  %35 = call noundef nonnull align 8 dereferenceable(8) ptr @_ZStlsIcSt11char_traitsIcEERSt13basic_ostreamIT_T0_ES6_St5_Setw(ptr noundef nonnull align 8 dereferenceable(8) %30, i32 %34)
  %36 = load ptr, ptr %4, align 8
  %37 = call noundef zeroext i16 @_ZNK4LIEF3ELF23SymbolVersionDefinition3ndxEv(ptr noundef nonnull align 8 dereferenceable(48) %36)
  %38 = call noundef nonnull align 8 dereferenceable(8) ptr @_ZNSolsEt(ptr noundef nonnull align 8 dereferenceable(8) %35, i16 noundef zeroext %37)
  %39 = load ptr, ptr %3, align 8
  %40 = call i32 @_ZSt4setwi(i32 noundef 10)
  %41 = getelementptr inbounds %"struct.std::_Setw", ptr %8, i32 0, i32 0
  store i32 %40, ptr %41, align 4
  %42 = getelementptr inbounds %"struct.std::_Setw", ptr %8, i32 0, i32 0
  %43 = load i32, ptr %42, align 4
  %44 = call noundef nonnull align 8 dereferenceable(8) ptr @_ZStlsIcSt11char_traitsIcEERSt13basic_ostreamIT_T0_ES6_St5_Setw(ptr noundef nonnull align 8 dereferenceable(8) %39, i32 %43)
  %45 = load ptr, ptr %4, align 8
  %46 = call noundef i32 @_ZNK4LIEF3ELF23SymbolVersionDefinition4hashEv(ptr noundef nonnull align 8 dereferenceable(48) %45)
  %47 = call noundef nonnull align 8 dereferenceable(8) ptr @_ZNSolsEj(ptr noundef nonnull align 8 dereferenceable(8) %44, i32 noundef %46)
  %48 = load ptr, ptr %3, align 8
  ret ptr %48
}